(dp0
Vengine
p1
S'pdflatex'
p2
sVpackages
p3
c__builtin__
set
p4
((lp5
Vhelvetica
p6
aVinputenc
p7
aVbooktabs
p8
atp9
Rp10
sVfiles_with_guttermarks
p11
g4
((lp12
V/Users/angueyraaristjm/Documents/zzTest/./FancySlidesLatex.tex
p13
aS'FancySlidesLatex.tex'
p14
aV/Users/angueyraaristjm/Documents/zzTest/FancySlidesLatex.tex
p15
atp16
Rp17
sVsynctex
p18
I01
s.